; Function Attrs: mustprogress uwtable
define void @_ZN3zmq20stream_engine_base_t19set_handshake_timerEv(ptr noundef nonnull align 8 dereferenceable(1689) %this) local_unnamed_addr #0 align 2 {
entry:
  %_has_handshake_timer = getelementptr inbounds i8, ptr %this, i64 1536
  %0 = load i8, ptr %_has_handshake_timer, align 8
  %1 = and i8 %0, 1
  %tobool.not = icmp eq i8 %1, 0
  br i1 %tobool.not, label %do.end, label %if.then

if.then:                                          ; preds = %entry
  %2 = load ptr, ptr @stderr, align 8
  %call = tail call i32 (ptr, ptr, ...) @fprintf(ptr noundef %2, ptr noundef nonnull @.str.2, ptr noundef nonnull @.str.21, ptr noundef nonnull @.str.1, i32 noundef 711) #21
  %3 = load ptr, ptr @stderr, align 8
  %call3 = tail call i32 @fflush(ptr noundef %3)
  tail call void @_ZN3zmq9zmq_abortEPKc(ptr noundef nonnull @.str.21)
  br label %do.end

do.end:                                           ; preds = %entry, %if.then
  %handshake_ivl = getelementptr inbounds i8, ptr %this, i64 964
  %4 = load i32, ptr %handshake_ivl, align 4
  %cmp = icmp sgt i32 %4, 0
  br i1 %cmp, label %if.then4, label %if.end8

if.then4:                                         ; preds = %do.end
  tail call void @_ZN3zmq11io_object_t9add_timerEii(ptr noundef nonnull align 8 dereferenceable(16) %this, i32 noundef %4, i32 noundef 64)
  store i8 1, ptr %_has_handshake_timer, align 8
  br label %if.end8

if.end8:                                          ; preds = %if.then4, %do.end
  ret void
}